; Function Attrs: nofree norecurse nosync nounwind memory(write, argmem: readwrite, inaccessiblemem: none) uwtable
define void @Ptngc_write32bits(ptr noundef captures(none) %0, i32 noundef %1, i32 noundef %2, ptr noundef captures(none) %3) local_unnamed_addr #6 {
  %5 = icmp sgt i32 %2, 7
  %6 = add nsw i32 %2, -8
  %7 = shl i32 255, %6
  %8 = sub nsw i32 8, %2
  %9 = lshr i32 255, %8
  %.0 = select i1 %5, i32 %7, i32 %9
  %10 = icmp sgt i32 %2, 8
  br i1 %10, label %.lr.ph, label %._crit_edge

.lr.ph:                                           ; preds = %4
  %11 = getelementptr inbounds nuw i8, ptr %0, i64 4
  %.pre = load i32, ptr %0, align 4, !tbaa !8
  %.pre26 = load i32, ptr %11, align 4, !tbaa !3
  br label %12

12:                                               ; preds = %.lr.ph, %Ptngc_out8bits.exit
  %13 = phi i32 [ %.pre26, %.lr.ph ], [ %36, %Ptngc_out8bits.exit ]
  %14 = phi i32 [ %.pre, %.lr.ph ], [ %37, %Ptngc_out8bits.exit ]
  %.123 = phi i32 [ %.0, %.lr.ph ], [ %38, %Ptngc_out8bits.exit ]
  %.01922 = phi i32 [ %2, %.lr.ph ], [ %15, %Ptngc_out8bits.exit ]
  %15 = add nsw i32 %.01922, -8
  %16 = shl i32 %14, 8
  %17 = add nsw i32 %13, 8
  store i32 %17, ptr %11, align 4, !tbaa !3
  %18 = and i32 %.123, %1
  %19 = lshr i32 %18, %15
  %20 = or i32 %16, %19
  store i32 %20, ptr %0, align 4, !tbaa !8
  %21 = icmp sgt i32 %13, -1
  br i1 %21, label %.lr.ph.preheader.i, label %Ptngc_out8bits.exit

.lr.ph.preheader.i:                               ; preds = %12
  %.pre9.i = load ptr, ptr %3, align 8, !tbaa !9
  br label %.lr.ph.i

.lr.ph.i:                                         ; preds = %.lr.ph.i, %.lr.ph.preheader.i
  %22 = phi ptr [ %31, %.lr.ph.i ], [ %.pre9.i, %.lr.ph.preheader.i ]
  %23 = phi i32 [ %33, %.lr.ph.i ], [ %20, %.lr.ph.preheader.i ]
  %24 = phi i32 [ %34, %.lr.ph.i ], [ %17, %.lr.ph.preheader.i ]
  %25 = add nsw i32 %24, -8
  store i32 %25, ptr %11, align 4, !tbaa !3
  %26 = shl i32 255, %25
  %27 = xor i32 %26, -1
  %28 = lshr i32 %23, %25
  %29 = trunc i32 %28 to i8
  store i8 %29, ptr %22, align 1, !tbaa !12
  %30 = load ptr, ptr %3, align 8, !tbaa !9
  %31 = getelementptr inbounds nuw i8, ptr %30, i64 1
  store ptr %31, ptr %3, align 8, !tbaa !9
  %32 = load i32, ptr %0, align 4, !tbaa !8
  %33 = and i32 %32, %27
  store i32 %33, ptr %0, align 4, !tbaa !8
  %34 = load i32, ptr %11, align 4, !tbaa !3
  %35 = icmp sgt i32 %34, 7
  br i1 %35, label %.lr.ph.i, label %Ptngc_out8bits.exit, !llvm.loop !13

Ptngc_out8bits.exit:                              ; preds = %.lr.ph.i, %12
  %36 = phi i32 [ %17, %12 ], [ %34, %.lr.ph.i ]
  %37 = phi i32 [ %20, %12 ], [ %33, %.lr.ph.i ]
  %38 = lshr i32 %.123, 8
  %39 = icmp samesign ugt i32 %.01922, 16
  br i1 %39, label %12, label %._crit_edge, !llvm.loop !16

._crit_edge:                                      ; preds = %Ptngc_out8bits.exit, %4
  %.019.lcssa = phi i32 [ %2, %4 ], [ %15, %Ptngc_out8bits.exit ]
  %.1.lcssa = phi i32 [ %.0, %4 ], [ %38, %Ptngc_out8bits.exit ]
  %.not = icmp eq i32 %.019.lcssa, 0
  br i1 %.not, label %Ptngc_writebits.exit, label %40

40:                                               ; preds = %._crit_edge
  %41 = and i32 %.1.lcssa, %1
  %42 = load i32, ptr %0, align 4, !tbaa !8
  %43 = shl i32 %42, %.019.lcssa
  %44 = getelementptr inbounds nuw i8, ptr %0, i64 4
  %45 = load i32, ptr %44, align 4, !tbaa !3
  %46 = add nsw i32 %45, %.019.lcssa
  store i32 %46, ptr %44, align 4, !tbaa !3
  %47 = or i32 %43, %41
  store i32 %47, ptr %0, align 4, !tbaa !8
  %48 = icmp sgt i32 %46, 7
  br i1 %48, label %.lr.ph.preheader.i.i, label %Ptngc_writebits.exit

.lr.ph.preheader.i.i:                             ; preds = %40
  %.pre9.i.i = load ptr, ptr %3, align 8, !tbaa !9
  br label %.lr.ph.i.i

.lr.ph.i.i:                                       ; preds = %.lr.ph.i.i, %.lr.ph.preheader.i.i
  %49 = phi ptr [ %58, %.lr.ph.i.i ], [ %.pre9.i.i, %.lr.ph.preheader.i.i ]
  %50 = phi i32 [ %60, %.lr.ph.i.i ], [ %47, %.lr.ph.preheader.i.i ]
  %51 = phi i32 [ %61, %.lr.ph.i.i ], [ %46, %.lr.ph.preheader.i.i ]
  %52 = add nsw i32 %51, -8
  store i32 %52, ptr %44, align 4, !tbaa !3
  %53 = shl i32 255, %52
  %54 = xor i32 %53, -1
  %55 = lshr i32 %50, %52
  %56 = trunc i32 %55 to i8
  store i8 %56, ptr %49, align 1, !tbaa !12
  %57 = load ptr, ptr %3, align 8, !tbaa !9
  %58 = getelementptr inbounds nuw i8, ptr %57, i64 1
  store ptr %58, ptr %3, align 8, !tbaa !9
  %59 = load i32, ptr %0, align 4, !tbaa !8
  %60 = and i32 %59, %54
  store i32 %60, ptr %0, align 4, !tbaa !8
  %61 = load i32, ptr %44, align 4, !tbaa !3
  %62 = icmp sgt i32 %61, 7
  br i1 %62, label %.lr.ph.i.i, label %Ptngc_writebits.exit, !llvm.loop !13

Ptngc_writebits.exit:                             ; preds = %.lr.ph.i.i, %40, %._crit_edge
  ret void
}